target datalayout = "e-m:e-p270:32:32-p271:32:32-p272:64:64-i64:64-i128:128-f80:128-n8:16:32:64-S128"
target triple = "x86_64-unknown-linux-gnu"

%"class.std::__cxx11::basic_string" = type { %"struct.std::__cxx11::basic_string<char>::_Alloc_hider", i64, %union.anon }
%"struct.std::__cxx11::basic_string<char>::_Alloc_hider" = type { ptr }
%union.anon = type { i64, [8 x i8] }
%"class.net::QuicSpdyStream" = type { %"class.net::ReliableQuicStream.base", ptr, ptr, i8, i8, %"class.std::__cxx11::basic_string", %"class.net::QuicHeaderList", i8, i8, %"class.std::__cxx11::basic_string", %"class.net::SpdyHeaderBlock" }
%"class.net::ReliableQuicStream.base" = type <{ ptr, %"class.std::__cxx11::list", i64, %"class.net::QuicStreamSequencer", i32, [4 x i8], ptr, i64, i64, i32, i32, i8, i8, i8, i8, i8, i8, i8, i8, i32, [4 x i8], %"class.net::QuicFlowController", ptr, i8 }>
%"class.std::__cxx11::list" = type { %"class.std::__cxx11::_List_base" }
%"class.std::__cxx11::_List_base" = type { %"struct.std::__cxx11::_List_base<net::ReliableQuicStream::PendingData, std::allocator<net::ReliableQuicStream::PendingData>>::_List_impl" }
%"struct.std::__cxx11::_List_base<net::ReliableQuicStream::PendingData, std::allocator<net::ReliableQuicStream::PendingData>>::_List_impl" = type { %"struct.std::__detail::_List_node_header" }
%"struct.std::__detail::_List_node_header" = type { %"struct.std::__detail::_List_node_base", i64 }
%"struct.std::__detail::_List_node_base" = type { ptr, ptr }
%"class.net::QuicStreamSequencer" = type <{ ptr, ptr, %"class.net::QuicStreamSequencerBuffer", i64, i8, [3 x i8], i32, i32, [4 x i8], ptr, i8, [7 x i8] }>
%"class.net::QuicStreamSequencerBuffer" = type { i64, i64, i64, %"class.std::__cxx11::list.0", i8, %"class.std::unique_ptr", i64, %"class.std::map" }
%"class.std::__cxx11::list.0" = type { %"class.std::__cxx11::_List_base.1" }
%"class.std::__cxx11::_List_base.1" = type { %"struct.std::__cxx11::_List_base<net::QuicStreamSequencerBuffer::Gap, std::allocator<net::QuicStreamSequencerBuffer::Gap>>::_List_impl" }
%"struct.std::__cxx11::_List_base<net::QuicStreamSequencerBuffer::Gap, std::allocator<net::QuicStreamSequencerBuffer::Gap>>::_List_impl" = type { %"struct.std::__detail::_List_node_header" }
%"class.std::unique_ptr" = type { %"struct.std::__uniq_ptr_data" }
%"struct.std::__uniq_ptr_data" = type { %"class.std::__uniq_ptr_impl" }
%"class.std::__uniq_ptr_impl" = type { %"class.std::tuple" }
%"class.std::tuple" = type { %"struct.std::_Tuple_impl" }
%"struct.std::_Tuple_impl" = type { %"struct.std::_Head_base.6" }
%"struct.std::_Head_base.6" = type { ptr }
%"class.std::map" = type { %"class.std::_Rb_tree" }
%"class.std::_Rb_tree" = type { %"struct.std::_Rb_tree<unsigned long, std::pair<const unsigned long, net::QuicStreamSequencerBuffer::FrameInfo>, std::_Select1st<std::pair<const unsigned long, net::QuicStreamSequencerBuffer::FrameInfo>>, std::less<unsigned long>>::_Rb_tree_impl" }
%"struct.std::_Rb_tree<unsigned long, std::pair<const unsigned long, net::QuicStreamSequencerBuffer::FrameInfo>, std::_Select1st<std::pair<const unsigned long, net::QuicStreamSequencerBuffer::FrameInfo>>, std::less<unsigned long>>::_Rb_tree_impl" = type { %"struct.std::_Rb_tree_key_compare", %"struct.std::_Rb_tree_header" }
%"struct.std::_Rb_tree_key_compare" = type { %"struct.std::less" }
%"struct.std::less" = type { i8 }
%"struct.std::_Rb_tree_header" = type { %"struct.std::_Rb_tree_node_base", i64 }
%"struct.std::_Rb_tree_node_base" = type { i32, ptr, ptr, ptr }
%"class.net::QuicFlowController" = type { ptr, i32, i32, i64, i64, i64, i64, i64, i64, i64, i8, i64, %"class.net::QuicTime" }
%"class.net::QuicTime" = type { i64 }
%"class.net::QuicHeaderList" = type { %"class.net::SpdyHeadersHandlerInterface", %"class.std::deque", i64 }
%"class.net::SpdyHeadersHandlerInterface" = type { ptr }
%"class.std::deque" = type { %"class.std::_Deque_base" }
%"class.std::_Deque_base" = type { %"struct.std::_Deque_base<std::pair<std::__cxx11::basic_string<char>, std::__cxx11::basic_string<char>>, std::allocator<std::pair<std::__cxx11::basic_string<char>, std::__cxx11::basic_string<char>>>>::_Deque_impl" }
%"struct.std::_Deque_base<std::pair<std::__cxx11::basic_string<char>, std::__cxx11::basic_string<char>>, std::allocator<std::pair<std::__cxx11::basic_string<char>, std::__cxx11::basic_string<char>>>>::_Deque_impl" = type { %"struct.std::_Deque_base<std::pair<std::__cxx11::basic_string<char>, std::__cxx11::basic_string<char>>, std::allocator<std::pair<std::__cxx11::basic_string<char>, std::__cxx11::basic_string<char>>>>::_Deque_impl_data" }
%"struct.std::_Deque_base<std::pair<std::__cxx11::basic_string<char>, std::__cxx11::basic_string<char>>, std::allocator<std::pair<std::__cxx11::basic_string<char>, std::__cxx11::basic_string<char>>>>::_Deque_impl_data" = type { ptr, i64, %"struct.std::_Deque_iterator", %"struct.std::_Deque_iterator" }
%"struct.std::_Deque_iterator" = type { ptr, ptr, ptr, ptr }
%"class.net::SpdyHeaderBlock" = type { %class.linked_hash_map, %"class.std::unique_ptr.27" }
%class.linked_hash_map = type { %"class.std::unordered_map", %"class.std::__cxx11::list.22" }
%"class.std::unordered_map" = type { %"class.std::_Hashtable" }
%"class.std::_Hashtable" = type { ptr, i64, %"struct.std::__detail::_Hash_node_base", i64, %"struct.std::__detail::_Prime_rehash_policy", ptr }
%"struct.std::__detail::_Hash_node_base" = type { ptr }
%"struct.std::__detail::_Prime_rehash_policy" = type { float, i64 }
%"class.std::__cxx11::list.22" = type { %"class.std::__cxx11::_List_base.23" }
%"class.std::__cxx11::_List_base.23" = type { %"struct.std::__cxx11::_List_base<std::pair<base::BasicStringPiece<std::string>, base::BasicStringPiece<std::string>>, std::allocator<std::pair<base::BasicStringPiece<std::string>, base::BasicStringPiece<std::string>>>>::_List_impl" }
%"struct.std::__cxx11::_List_base<std::pair<base::BasicStringPiece<std::string>, base::BasicStringPiece<std::string>>, std::allocator<std::pair<base::BasicStringPiece<std::string>, base::BasicStringPiece<std::string>>>>::_List_impl" = type { %"struct.std::__detail::_List_node_header" }
%"class.std::unique_ptr.27" = type { %"struct.std::__uniq_ptr_data.28" }
%"struct.std::__uniq_ptr_data.28" = type { %"class.std::__uniq_ptr_impl.29" }
%"class.std::__uniq_ptr_impl.29" = type { %"class.std::tuple.30" }
%"class.std::tuple.30" = type { %"struct.std::_Tuple_impl.31" }
%"struct.std::_Tuple_impl.31" = type { %"struct.std::_Head_base.34" }
%"struct.std::_Head_base.34" = type { ptr }
%"class.net::ReliableQuicStream" = type <{ ptr, %"class.std::__cxx11::list", i64, %"class.net::QuicStreamSequencer", i32, [4 x i8], ptr, i64, i64, i32, i32, i8, i8, i8, i8, i8, i8, i8, i8, i32, [4 x i8], %"class.net::QuicFlowController", ptr, i8, [7 x i8] }>
%"class.net::QuicConnectionVisitorInterface" = type { ptr }
%"class.std::map.35" = type { %"class.std::_Rb_tree.36" }
%"class.std::_Rb_tree.36" = type { %"struct.std::_Rb_tree<unsigned int, std::pair<const unsigned int, unsigned long>, std::_Select1st<std::pair<const unsigned int, unsigned long>>, std::less<unsigned int>>::_Rb_tree_impl" }
%"struct.std::_Rb_tree<unsigned int, std::pair<const unsigned int, unsigned long>, std::_Select1st<std::pair<const unsigned int, unsigned long>>, std::less<unsigned int>>::_Rb_tree_impl" = type { %"struct.std::_Rb_tree_key_compare.40", %"struct.std::_Rb_tree_header" }
%"struct.std::_Rb_tree_key_compare.40" = type { %"struct.std::less.41" }
%"struct.std::less.41" = type { i8 }
%"class.std::vector" = type { %"struct.std::_Vector_base" }
%"struct.std::_Vector_base" = type { %"struct.std::_Vector_base<net::ReliableQuicStream *, std::allocator<net::ReliableQuicStream *>>::_Vector_impl" }
%"struct.std::_Vector_base<net::ReliableQuicStream *, std::allocator<net::ReliableQuicStream *>>::_Vector_impl" = type { %"struct.std::_Vector_base<net::ReliableQuicStream *, std::allocator<net::ReliableQuicStream *>>::_Vector_impl_data" }
%"struct.std::_Vector_base<net::ReliableQuicStream *, std::allocator<net::ReliableQuicStream *>>::_Vector_impl_data" = type { ptr, ptr, ptr }
%"class.net::QuicConfig" = type { %"class.net::QuicTime::Delta", %"class.net::QuicTime::Delta", i64, %"class.net::QuicFixedTagVector", %"class.net::QuicNegotiableUint32", %"class.net::QuicNegotiableUint32", %"class.net::QuicNegotiableUint32", %"class.net::QuicFixedUint32", %"class.net::QuicFixedUint32", %"class.net::QuicFixedUint32", %"class.net::QuicFixedUint32", %"class.net::QuicFixedUint32", %"class.net::QuicFixedUint32", %"class.net::QuicNegotiableUint32", %"class.net::QuicFixedUint32", %"class.net::QuicFixedIPEndPoint", %"class.net::QuicFixedUint32" }
%"class.net::QuicTime::Delta" = type { %"class.base::TimeDelta", i64 }
%"class.base::TimeDelta" = type { i64 }
%"class.net::QuicFixedTagVector" = type <{ %"class.net::QuicConfigValue", %"class.std::vector.46", i8, [7 x i8], %"class.std::vector.46", i8, [7 x i8] }>
%"class.net::QuicConfigValue" = type { ptr, i32, i32 }
%"class.std::vector.46" = type { %"struct.std::_Vector_base.47" }
%"struct.std::_Vector_base.47" = type { %"struct.std::_Vector_base<unsigned int, std::allocator<unsigned int>>::_Vector_impl" }
%"struct.std::_Vector_base<unsigned int, std::allocator<unsigned int>>::_Vector_impl" = type { %"struct.std::_Vector_base<unsigned int, std::allocator<unsigned int>>::_Vector_impl_data" }
%"struct.std::_Vector_base<unsigned int, std::allocator<unsigned int>>::_Vector_impl_data" = type { ptr, ptr, ptr }
%"class.net::QuicNegotiableUint32" = type { %"class.net::QuicNegotiableValue.base", i32, i32, i32 }
%"class.net::QuicNegotiableValue.base" = type <{ %"class.net::QuicConfigValue", i8 }>
%"class.net::QuicFixedIPEndPoint" = type <{ %"class.net::QuicConfigValue", %"class.net::IPEndPoint", i8, [7 x i8], %"class.net::IPEndPoint", i8, [7 x i8] }>
%"class.net::IPEndPoint" = type <{ %"class.net::IPAddress", i16, [6 x i8] }>
%"class.net::IPAddress" = type { %"class.std::vector.51" }
%"class.std::vector.51" = type { %"struct.std::_Vector_base.52" }
%"struct.std::_Vector_base.52" = type { %"struct.std::_Vector_base<unsigned char, std::allocator<unsigned char>>::_Vector_impl" }
%"struct.std::_Vector_base<unsigned char, std::allocator<unsigned char>>::_Vector_impl" = type { %"struct.std::_Vector_base<unsigned char, std::allocator<unsigned char>>::_Vector_impl_data" }
%"struct.std::_Vector_base<unsigned char, std::allocator<unsigned char>>::_Vector_impl_data" = type { ptr, ptr, ptr }
%"class.net::QuicFixedUint32" = type <{ %"class.net::QuicConfigValue", i32, i8, [3 x i8], i32, i8, [3 x i8] }>
%"class.base::SmallMap" = type { i32, %"class.base::internal::SmallMapDefaultInit", [3 x i8], %union.anon.56 }
%"class.base::internal::SmallMapDefaultInit" = type { i8 }
%union.anon.56 = type { %"class.base::ManualConstructor.57" }
%"class.base::ManualConstructor.57" = type { %"class.base::AlignedMemory.58" }
%"class.base::AlignedMemory.58" = type { [56 x i8] }
%"class.base::SmallMap.59" = type { i32, %"class.base::internal::SmallMapDefaultInit", [3 x i8], %union.anon.60 }
%union.anon.60 = type { [10 x %"class.base::ManualConstructor"] }
%"class.base::ManualConstructor" = type { %"class.base::AlignedMemory" }
%"class.base::AlignedMemory" = type { [16 x i8] }
%"class.std::unordered_set" = type { %"class.std::_Hashtable.61" }
%"class.std::_Hashtable.61" = type { ptr, i64, %"struct.std::__detail::_Hash_node_base", i64, %"struct.std::__detail::_Prime_rehash_policy", ptr }
%"class.net::QuicWriteBlockedList" = type <{ %"class.net::PriorityWriteScheduler", [8 x i32], [8 x i32], i8, i8, i8, [5 x i8] }>
%"class.net::PriorityWriteScheduler" = type { %"class.net::WriteScheduler", i64, [8 x %"struct.net::PriorityWriteScheduler<unsigned int>::PriorityInfo"], %"class.std::unordered_map.83" }
%"class.net::WriteScheduler" = type { ptr }
%"struct.net::PriorityWriteScheduler<unsigned int>::PriorityInfo" = type { %"class.std::deque.77", i64 }
%"class.std::deque.77" = type { %"class.std::_Deque_base.78" }
%"class.std::_Deque_base.78" = type { %"struct.std::_Deque_base<net::PriorityWriteScheduler<unsigned int>::StreamInfo *, std::allocator<net::PriorityWriteScheduler<unsigned int>::StreamInfo *>>::_Deque_impl" }
%"struct.std::_Deque_base<net::PriorityWriteScheduler<unsigned int>::StreamInfo *, std::allocator<net::PriorityWriteScheduler<unsigned int>::StreamInfo *>>::_Deque_impl" = type { %"struct.std::_Deque_base<net::PriorityWriteScheduler<unsigned int>::StreamInfo *, std::allocator<net::PriorityWriteScheduler<unsigned int>::StreamInfo *>>::_Deque_impl_data" }
%"struct.std::_Deque_base<net::PriorityWriteScheduler<unsigned int>::StreamInfo *, std::allocator<net::PriorityWriteScheduler<unsigned int>::StreamInfo *>>::_Deque_impl_data" = type { ptr, i64, %"struct.std::_Deque_iterator.82", %"struct.std::_Deque_iterator.82" }
%"struct.std::_Deque_iterator.82" = type { ptr, ptr, ptr, ptr }
%"class.std::unordered_map.83" = type { %"class.std::_Hashtable.84" }
%"class.std::_Hashtable.84" = type { ptr, i64, %"struct.std::__detail::_Hash_node_base", i64, %"struct.std::__detail::_Prime_rehash_policy", ptr }
%"struct.net::QuicIOVector" = type { ptr, i32, i64 }
%"struct.net::QuicConsumedData" = type <{ i64, i8, [7 x i8] }>
%"class.net::QuicSpdySession" = type <{ %"class.net::QuicSession.base", [4 x i8], %"class.std::unique_ptr.97", i8, [7 x i8] }>
%"class.net::QuicSession.base" = type <{ %"class.net::QuicConnectionVisitorInterface", %"class.std::map.35", ptr, %"class.std::vector", %"class.net::QuicConfig", i64, i64, %"class.base::SmallMap", %"class.base::SmallMap.59", i32, [4 x i8], %"class.std::unordered_set", %"class.std::unordered_set", %"class.net::QuicWriteBlockedList", i32, [4 x i8], i64, i64, i64, i32, [4 x i8], %"class.net::QuicFlowController", i32 }>
%"class.std::unique_ptr.97" = type { %"struct.std::__uniq_ptr_data.98" }
%"struct.std::__uniq_ptr_data.98" = type { %"class.std::__uniq_ptr_impl.99" }
%"class.std::__uniq_ptr_impl.99" = type { %"class.std::tuple.100" }
%"class.std::tuple.100" = type { %"struct.std::_Tuple_impl.101" }
%"struct.std::_Tuple_impl.101" = type { %"struct.std::_Head_base.104" }
%"struct.std::_Head_base.104" = type { ptr }

; Function Attrs: mustprogress nounwind uwtable
define linkonce_odr dso_local noundef nonnull align 8 dereferenceable(8) ptr @_ZNSt10_Head_baseILm0EPN3net17QuicHeadersStreamELb0EE7_M_headERKS3_(ptr noundef nonnull align 8 dereferenceable(8) %__b) #3 comdat align 2 {
entry:
  %__b.addr = alloca ptr, align 8
  store ptr %__b, ptr %__b.addr, align 8
  %0 = load ptr, ptr %__b.addr, align 8
  %_M_head_impl = getelementptr inbounds %"struct.std::_Head_base.104", ptr %0, i32 0, i32 0
  ret ptr %_M_head_impl
}

; Function Attrs: mustprogress nounwind uwtable
define linkonce_odr dso_local noundef nonnull align 8 dereferenceable(8) ptr @_ZNSt11_Tuple_implILm0EJPN3net17QuicHeadersStreamESt14default_deleteIS1_EEE7_M_headERKS5_(ptr noundef nonnull align 8 dereferenceable(8) %__t) #3 comdat align 2 {
entry:
  %__t.addr = alloca ptr, align 8
  store ptr %__t, ptr %__t.addr, align 8
  %0 = load ptr, ptr %__t.addr, align 8
  %call = call noundef nonnull align 8 dereferenceable(8) ptr @_ZNSt10_Head_baseILm0EPN3net17QuicHeadersStreamELb0EE7_M_headERKS3_(ptr noundef nonnull align 8 dereferenceable(8) %0) #9
  ret ptr %call
}

; Function Attrs: mustprogress nounwind uwtable
define linkonce_odr dso_local noundef nonnull align 8 dereferenceable(8) ptr @_ZSt12__get_helperILm0EPN3net17QuicHeadersStreamEJSt14default_deleteIS1_EEERKT0_RKSt11_Tuple_implIXT_EJS5_DpT1_EE(ptr noundef nonnull align 8 dereferenceable(8) %__t) #3 comdat {
entry:
  %__t.addr = alloca ptr, align 8
  store ptr %__t, ptr %__t.addr, align 8
  %0 = load ptr, ptr %__t.addr, align 8
  %call = call noundef nonnull align 8 dereferenceable(8) ptr @_ZNSt11_Tuple_implILm0EJPN3net17QuicHeadersStreamESt14default_deleteIS1_EEE7_M_headERKS5_(ptr noundef nonnull align 8 dereferenceable(8) %0) #9
  ret ptr %call
}

; Function Attrs: mustprogress nounwind uwtable
define linkonce_odr dso_local noundef nonnull align 8 dereferenceable(8) ptr @_ZSt3getILm0EJPN3net17QuicHeadersStreamESt14default_deleteIS1_EEERKNSt13tuple_elementIXT_ESt5tupleIJDpT0_EEE4typeERKS9_(ptr noundef nonnull align 8 dereferenceable(8) %__t) #3 comdat {
entry:
  %__t.addr = alloca ptr, align 8
  store ptr %__t, ptr %__t.addr, align 8
  %0 = load ptr, ptr %__t.addr, align 8
  %call = call noundef nonnull align 8 dereferenceable(8) ptr @_ZSt12__get_helperILm0EPN3net17QuicHeadersStreamEJSt14default_deleteIS1_EEERKT0_RKSt11_Tuple_implIXT_EJS5_DpT1_EE(ptr noundef nonnull align 8 dereferenceable(8) %0) #9
  ret ptr %call
}

; Function Attrs: mustprogress nounwind uwtable
define linkonce_odr dso_local noundef ptr @_ZNKSt15__uniq_ptr_implIN3net17QuicHeadersStreamESt14default_deleteIS1_EE6_M_ptrEv(ptr noundef nonnull align 8 dereferenceable(8) %this) #3 comdat align 2 {
entry:
  %this.addr = alloca ptr, align 8
  store ptr %this, ptr %this.addr, align 8
  %this1 = load ptr, ptr %this.addr, align 8
  %_M_t = getelementptr inbounds %"class.std::__uniq_ptr_impl.99", ptr %this1, i32 0, i32 0
  %call = call noundef nonnull align 8 dereferenceable(8) ptr @_ZSt3getILm0EJPN3net17QuicHeadersStreamESt14default_deleteIS1_EEERKNSt13tuple_elementIXT_ESt5tupleIJDpT0_EEE4typeERKS9_(ptr noundef nonnull align 8 dereferenceable(8) %_M_t) #9
  %0 = load ptr, ptr %call, align 8
  ret ptr %0
}

; Function Attrs: mustprogress nounwind uwtable
define linkonce_odr dso_local noundef ptr @_ZNKSt10unique_ptrIN3net17QuicHeadersStreamESt14default_deleteIS1_EE3getEv(ptr noundef nonnull align 8 dereferenceable(8) %this) #3 comdat align 2 {
entry:
  %this.addr = alloca ptr, align 8
  store ptr %this, ptr %this.addr, align 8
  %this1 = load ptr, ptr %this.addr, align 8
  %_M_t = getelementptr inbounds %"class.std::unique_ptr.97", ptr %this1, i32 0, i32 0
  %call = call noundef ptr @_ZNKSt15__uniq_ptr_implIN3net17QuicHeadersStreamESt14default_deleteIS1_EE6_M_ptrEv(ptr noundef nonnull align 8 dereferenceable(8) %_M_t) #9
  ret ptr %call
}

; Function Attrs: mustprogress nounwind uwtable
define linkonce_odr dso_local noundef i32 @_ZNK3net18ReliableQuicStream2idEv(ptr noundef nonnull align 8 dereferenceable(377) %this) #3 comdat align 2 {
entry:
  %this.addr = alloca ptr, align 8
  store ptr %this, ptr %this.addr, align 8
  %this1 = load ptr, ptr %this.addr, align 8
  %id_ = getelementptr inbounds %"class.net::ReliableQuicStream", ptr %this1, i32 0, i32 4
  %0 = load i32, ptr %id_, align 8
  ret i32 %0
}

; Function Attrs: mustprogress nounwind uwtable
define linkonce_odr dso_local noundef zeroext i1 @_ZNK3net15QuicSpdySession18force_hol_blockingEv(ptr noundef nonnull align 8 dereferenceable(2057) %this) #3 comdat align 2 {
entry:
  %this.addr = alloca ptr, align 8
  store ptr %this, ptr %this.addr, align 8
  %this1 = load ptr, ptr %this.addr, align 8
  %force_hol_blocking_ = getelementptr inbounds %"class.net::QuicSpdySession", ptr %this1, i32 0, i32 3
  %0 = load i8, ptr %force_hol_blocking_, align 8
  %tobool = trunc i8 %0 to i1
  ret i1 %tobool
}

; Function Attrs: mustprogress nounwind uwtable
define linkonce_odr dso_local noundef ptr @_ZN3net15QuicSpdySession14headers_streamEv(ptr noundef nonnull align 8 dereferenceable(2057) %this) #3 comdat align 2 {
entry:
  %this.addr = alloca ptr, align 8
  store ptr %this, ptr %this.addr, align 8
  %this1 = load ptr, ptr %this.addr, align 8
  %headers_stream_ = getelementptr inbounds %"class.net::QuicSpdySession", ptr %this1, i32 0, i32 2
  %call = call noundef ptr @_ZNKSt10unique_ptrIN3net17QuicHeadersStreamESt14default_deleteIS1_EE3getEv(ptr noundef nonnull align 8 dereferenceable(8) %headers_stream_) #9
  ret ptr %call
}

; Function Attrs: mustprogress uwtable
define dso_local { i64, i8 } @_ZN3net14QuicSpdyStream15WritevDataInnerENS_12QuicIOVectorEmbPNS_24QuicAckListenerInterfaceE(ptr noundef nonnull align 8 dereferenceable(664) %this, ptr noundef byval(%"struct.net::QuicIOVector") align 8 %iov, i64 noundef %offset, i1 noundef zeroext %fin, ptr noundef %ack_notifier_delegate) unnamed_addr #0 align 2 {
entry:
  %retval = alloca %"struct.net::QuicConsumedData", align 8
  %this.addr = alloca ptr, align 8
  %offset.addr = alloca i64, align 8
  %fin.addr = alloca i8, align 1
  %ack_notifier_delegate.addr = alloca ptr, align 8
  %agg.tmp = alloca %"struct.net::QuicIOVector", align 8
  %agg.tmp8 = alloca %"struct.net::QuicIOVector", align 8
  store ptr %this, ptr %this.addr, align 8
  store i64 %offset, ptr %offset.addr, align 8
  %frombool = zext i1 %fin to i8
  store i8 %frombool, ptr %fin.addr, align 1
  store ptr %ack_notifier_delegate, ptr %ack_notifier_delegate.addr, align 8
  %this1 = load ptr, ptr %this.addr, align 8
  %spdy_session_ = getelementptr inbounds %"class.net::QuicSpdyStream", ptr %this1, i32 0, i32 1
  %0 = load ptr, ptr %spdy_session_, align 8
  %call = call noundef ptr @_ZN3net15QuicSpdySession14headers_streamEv(ptr noundef nonnull align 8 dereferenceable(2057) %0)
  %cmp = icmp ne ptr %call, null
  br i1 %cmp, label %land.lhs.true, label %if.end

land.lhs.true:                                    ; preds = %entry
  %spdy_session_2 = getelementptr inbounds %"class.net::QuicSpdyStream", ptr %this1, i32 0, i32 1
  %1 = load ptr, ptr %spdy_session_2, align 8
  %call3 = call noundef zeroext i1 @_ZNK3net15QuicSpdySession18force_hol_blockingEv(ptr noundef nonnull align 8 dereferenceable(2057) %1)
  br i1 %call3, label %if.then, label %if.end

if.then:                                          ; preds = %land.lhs.true
  %spdy_session_4 = getelementptr inbounds %"class.net::QuicSpdyStream", ptr %this1, i32 0, i32 1
  %2 = load ptr, ptr %spdy_session_4, align 8
  %call5 = call noundef ptr @_ZN3net15QuicSpdySession14headers_streamEv(ptr noundef nonnull align 8 dereferenceable(2057) %2)
  %call6 = call noundef i32 @_ZNK3net18ReliableQuicStream2idEv(ptr noundef nonnull align 8 dereferenceable(377) %this1)
  call void @llvm.memcpy.p0.p0.i64(ptr align 8 %agg.tmp, ptr align 8 %iov, i64 24, i1 false)
  %3 = load i64, ptr %offset.addr, align 8
  %4 = load i8, ptr %fin.addr, align 1
  %tobool = trunc i8 %4 to i1
  %5 = load ptr, ptr %ack_notifier_delegate.addr, align 8
  %call7 = call { i64, i8 } @_ZN3net17QuicHeadersStream16WritevStreamDataEjNS_12QuicIOVectorEmbPNS_24QuicAckListenerInterfaceE(ptr noundef nonnull align 8 dereferenceable(816) %call5, i32 noundef %call6, ptr noundef byval(%"struct.net::QuicIOVector") align 8 %agg.tmp, i64 noundef %3, i1 noundef zeroext %tobool, ptr noundef %5)
  %6 = getelementptr inbounds { i64, i8 }, ptr %retval, i32 0, i32 0
  %7 = extractvalue { i64, i8 } %call7, 0
  store i64 %7, ptr %6, align 8
  %8 = getelementptr inbounds { i64, i8 }, ptr %retval, i32 0, i32 1
  %9 = extractvalue { i64, i8 } %call7, 1
  store i8 %9, ptr %8, align 8
  br label %return

if.end:                                           ; preds = %land.lhs.true, %entry
  call void @llvm.memcpy.p0.p0.i64(ptr align 8 %agg.tmp8, ptr align 8 %iov, i64 24, i1 false)
  %10 = load i64, ptr %offset.addr, align 8
  %11 = load i8, ptr %fin.addr, align 1
  %tobool9 = trunc i8 %11 to i1
  %12 = load ptr, ptr %ack_notifier_delegate.addr, align 8
  %call10 = call { i64, i8 } @_ZN3net18ReliableQuicStream15WritevDataInnerENS_12QuicIOVectorEmbPNS_24QuicAckListenerInterfaceE(ptr noundef nonnull align 8 dereferenceable(377) %this1, ptr noundef byval(%"struct.net::QuicIOVector") align 8 %agg.tmp8, i64 noundef %10, i1 noundef zeroext %tobool9, ptr noundef %12)
  %13 = getelementptr inbounds { i64, i8 }, ptr %retval, i32 0, i32 0
  %14 = extractvalue { i64, i8 } %call10, 0
  store i64 %14, ptr %13, align 8
  %15 = getelementptr inbounds { i64, i8 }, ptr %retval, i32 0, i32 1
  %16 = extractvalue { i64, i8 } %call10, 1
  store i8 %16, ptr %15, align 8
  br label %return

return:                                           ; preds = %if.end, %if.then
  %17 = load { i64, i8 }, ptr %retval, align 8
  ret { i64, i8 } %17
}