; Function Attrs: mustprogress uwtable
define dso_local { i64, i8 } @_ZN3net14QuicSpdyStream15WritevDataInnerENS_12QuicIOVectorEmbPNS_24QuicAckListenerInterfaceE(ptr noundef nonnull align 8 dereferenceable(664) %this, ptr nocapture noundef readonly byval(%"struct.net::QuicIOVector") align 8 %iov, i64 noundef %offset, i1 noundef zeroext %fin, ptr noundef %ack_notifier_delegate) unnamed_addr #0 align 2 {
entry:
  %spdy_session_ = getelementptr inbounds i8, ptr %this, i64 384
  %0 = load ptr, ptr %spdy_session_, align 8
  %headers_stream_.i = getelementptr inbounds i8, ptr %0, i64 2048
  %1 = load ptr, ptr %headers_stream_.i, align 8
  %cmp.not = icmp eq ptr %1, null
  br i1 %cmp.not, label %if.end, label %land.lhs.true

land.lhs.true:                                    ; preds = %entry
  %force_hol_blocking_.i = getelementptr inbounds i8, ptr %0, i64 2056
  %2 = load i8, ptr %force_hol_blocking_.i, align 8
  %3 = and i8 %2, 1
  %tobool.i.not = icmp eq i8 %3, 0
  br i1 %tobool.i.not, label %if.end, label %if.then

if.then:                                          ; preds = %land.lhs.true
  %id_.i = getelementptr inbounds i8, ptr %this, i64 216
  %4 = load i32, ptr %id_.i, align 8
  %call7 = tail call { i64, i8 } @_ZN3net17QuicHeadersStream16WritevStreamDataEjNS_12QuicIOVectorEmbPNS_24QuicAckListenerInterfaceE(ptr noundef nonnull align 8 dereferenceable(816) %1, i32 noundef %4, ptr noundef nonnull byval(%"struct.net::QuicIOVector") align 8 %iov, i64 noundef %offset, i1 noundef zeroext %fin, ptr noundef %ack_notifier_delegate)
  br label %return

if.end:                                           ; preds = %land.lhs.true, %entry
  %call10 = tail call { i64, i8 } @_ZN3net18ReliableQuicStream15WritevDataInnerENS_12QuicIOVectorEmbPNS_24QuicAckListenerInterfaceE(ptr noundef nonnull align 8 dereferenceable(377) %this, ptr noundef nonnull byval(%"struct.net::QuicIOVector") align 8 %iov, i64 noundef %offset, i1 noundef zeroext %fin, ptr noundef %ack_notifier_delegate)
  br label %return

return:                                           ; preds = %if.end, %if.then
  %call7.pn = phi { i64, i8 } [ %call7, %if.then ], [ %call10, %if.end ]
  ret { i64, i8 } %call7.pn
}